(dp0
I1
(dp1
I1
(lp2
I14725
aI14893
aI19183
aI20148
aI20452
aI22804
aI22874
aI25624
aI39964
aI44374
aI45380
aI45939
aI46290
aI52550
aI53332
aI54434
aI63336
aI63356
aI64838
aI70525
aI70790
aI71819
aI73248
aI76786
aI89565
aI90874
aI95135
aI95746
aI96140
aI98703
aI98777
aI99624
aI99692
aI101010
aI102918
aI107960
aI108579
aI109758
aI109839
aI112571
aI112848
aI114053
aI117319
aI122067
aI123141
aI125597
aI125627
aI127958
aI128582
aI129541
aI129575
aI129935
aI132210
aI132468
aI132604
aI139287
aI141312
aI141704
aI147861
aI147874
aI148683
aI150850
aI150883
aI151153
aI151193
aI152722
aI153392
aI154762
aI161716
aI162087
aI162614
aI163180
aI163933
aI165891
aI166270
aI166355
aI166366
aI166535
aI168004
aI168369
aI168738
aI170102
aI170258
aI171209
aI171748
aI173671
aI175097
aI175558
aI175829
aI177447
aI184161
aI186026
aI186134
aI186882
aI188851
aI188965
aI189634
aI191205
aI192042
aI194472
aI195488
aI202304
aI203072
aI203779
aI205126
aI205210
aI205378
aI207454
aI207710
aI207807
aI207893
aI207902
aI208322
aI208855
aI209446
aI210301
aI215049
aI220102
aI220103
aI220961
aI223467
aI223783
aI226674
aI230537
aI231094
aI237508
aI241995
aI243350
aI244193
aI246822
aI247358
aI249964
aI258561
asI2
(lp3
I11685
aI12711
aI13721
aI13792
aI45060
aI48682
aI49583
aI56764
aI60994
aI64653
aI65987
aI67296
aI71351
aI73520
aI77607
aI79837
aI84567
aI85062
aI85170
aI87021
aI88240
aI93793
aI96513
aI97273
aI97489
aI98163
aI98569
aI98885
aI99259
aI101444
aI101953
aI103991
aI107986
aI109509
aI109973
aI110601
aI113817
aI117080
aI117342
aI117653
aI119567
aI119734
aI122657
aI122674
aI123718
aI124741
aI130545
aI132319
aI133182
aI139839
aI144530
aI145666
aI146885
aI147437
aI147850
aI149817
aI154744
aI155520
aI157784
aI160101
aI162887
aI163550
aI164264
aI164580
aI165234
aI165969
aI167468
aI169414
aI170377
aI170424
aI170532
aI171088
aI171352
aI171927
aI172249
aI173987
aI175595
aI176211
aI176338
aI176421
aI176434
aI179288
aI180050
aI182351
aI182405
aI183612
aI183632
aI184450
aI184900
aI185277
aI185547
aI187049
aI187332
aI187356
aI187758
aI187761
aI188173
aI188320
aI188541
aI189011
aI190936
aI190990
aI191565
aI192652
aI194829
aI195477
aI196053
aI196686
aI196706
aI197758
aI198518
aI198674
aI199249
aI200912
aI200936
aI200991
aI202712
aI203945
aI204148
aI206359
aI206374
aI206413
aI206441
aI206577
aI206726
aI207698
aI208352
aI210319
aI222095
aI227695
aI230875
aI232139
aI235641
aI237879
aI237965
aI238200
aI239297
aI239718
aI243343
aI243739
aI250330
asI3
(lp4
I790
aI1646
aI4519
aI18639
aI22907
aI23207
aI27379
aI27396
aI31327
aI32119
aI34087
aI35503
aI48515
aI50497
aI50596
aI55837
aI56968
aI57773
aI63308
aI66114
aI70804
aI71316
aI73116
aI74395
aI76403
aI84175
aI89782
aI90942
aI93863
aI95167
aI100210
aI104814
aI108421
aI109823
aI110153
aI113192
aI113397
aI114213
aI114329
aI114958
aI118160
aI119847
aI121957
aI124776
aI125197
aI125299
aI125536
aI128521
aI128592
aI128605
aI130930
aI138194
aI142568
aI143932
aI145658
aI146133
aI148334
aI150666
aI157847
aI160419
aI160975
aI162306
aI162878
aI167122
aI168227
aI169497
aI170768
aI180534
aI180680
aI182192
aI185409
aI185428
aI185560
aI187442
aI189755
aI190150
aI192012
aI193836
aI195000
aI196602
aI197264
aI201095
aI204235
aI204605
aI204842
aI205275
aI206046
aI206343
aI206472
aI206540
aI206594
aI206667
aI207055
aI207995
aI208552
aI209433
aI212292
aI214500
aI227519
aI236533
aI239162
aI239198
aI239875
aI241533
aI242298
aI249389
aI252900
aI255302
asI4
(lp5
I11748
aI18566
aI23932
aI27388
aI53076
aI53948
aI54028
aI61233
aI65795
aI78539
aI80536
aI83985
aI87264
aI108466
aI113323
aI117625
aI120864
aI126487
aI129885
aI131054
aI139228
aI139369
aI142376
aI144255
aI147859
aI147946
aI148300
aI151846
aI152324
aI152768
aI159806
aI160262
aI164388
aI168842
aI169640
aI169654
aI172185
aI172432
aI172813
aI174311
aI179505
aI185617
aI188787
aI188895
aI192129
aI192806
aI195311
aI195378
aI195510
aI197120
aI199339
aI203066
aI203649
aI203856
aI204987
aI206642
aI226938
aI241410
aI243086
aI259906
asI5
(lp6
I18638
aI62387
aI64858
aI77468
aI78195
aI96284
aI108331
aI109642
aI112105
aI113092
aI114707
aI116447
aI116457
aI121751
aI125260
aI125769
aI127431
aI142011
aI149058
aI149844
aI151659
aI158697
aI163868
aI172059
aI172930
aI173028
aI175402
aI176360
aI176867
aI185637
aI190835
aI203640
aI204575
aI236889
asI6
(lp7
I93830
aI108047
aI126295
aI148053
aI148442
aI150632
aI161371
aI161494
aI162048
aI185661
aI190734
aI190749
aI190762
aI190792
aI190811
aI190823
aI191968
aI203053
aI203078
aI205310
aI209849
asI7
(lp8
I94454
aI143854
asI8
(lp9
I201524
assI2
(dp10
I1
(lp11
I6067
aI8883
aI14121
aI16390
aI16434
aI30519
aI43995
aI53683
aI54860
aI55093
aI55174
aI60359
aI63387
aI64352
aI64448
aI66988
aI72001
aI78301
aI80578
aI93895
aI96503
aI97280
aI99839
aI100888
aI101480
aI101800
aI103789
aI103931
aI106416
aI108090
aI112248
aI113672
aI114554
aI117380
aI118632
aI118725
aI133498
aI133946
aI136288
aI141781
aI142234
aI142672
aI143343
aI143872
aI144497
aI146185
aI146570
aI149781
aI162933
aI164310
aI164579
aI165277
aI166386
aI170171
aI171528
aI172740
aI173901
aI177561
aI183937
aI185329
aI185588
aI186145
aI187325
aI187375
aI190431
aI194258
aI197725
aI197741
aI208905
aI211886
aI212078
aI226183
aI238067
aI241053
aI250028
aI250043
aI250843
aI257094
aI257200
aI257376
aI257676
aI257803
aI257952
asI2
(lp12
I13792
aI17854
aI19189
aI32877
aI45481
aI48682
aI49570
aI56764
aI60994
aI64322
aI64653
aI66327
aI71351
aI73520
aI79837
aI80633
aI81685
aI84774
aI85062
aI85136
aI90553
aI90587
aI91722
aI91741
aI97273
aI97483
aI98569
aI99340
aI99429
aI101953
aI103991
aI104115
aI105506
aI109509
aI110648
aI110655
aI113246
aI113347
aI113372
aI115161
aI116107
aI116331
aI118868
aI134034
aI135384
aI139839
aI142446
aI147850
aI149382
aI153261
aI153307
aI157286
aI157498
aI158708
aI160403
aI160509
aI161927
aI161928
aI162012
aI162161
aI164550
aI165253
aI169542
aI170377
aI172013
aI172033
aI172978
aI173822
aI175886
aI177324
aI182351
aI183612
aI183632
aI184338
aI184450
aI184697
aI184900
aI185277
aI187332
aI187356
aI188105
aI189011
aI189229
aI193462
aI193522
aI193698
aI196053
aI198499
aI198518
aI200991
aI202185
aI202712
aI204148
aI204351
aI204365
aI204395
aI204412
aI204424
aI207060
aI210319
aI228635
aI230875
aI232139
aI235641
aI239718
aI243739
aI252401
aI258277
asI3
(lp13
I27379
aI32119
aI48515
aI50596
aI57773
aI64618
aI73116
aI84175
aI95167
aI101043
aI102325
aI108798
aI113192
aI113660
aI114213
aI114329
aI114958
aI118160
aI118249
aI121957
aI124776
aI125197
aI142195
aI143471
aI143932
aI153254
aI162878
aI168227
aI169497
aI173919
aI175856
aI177560
aI185560
aI192012
aI193836
aI205633
aI206540
aI206594
aI239198
aI241533
aI242298
aI244294
asI4
(lp14
I18566
aI23932
aI27388
aI51691
aI53948
aI70241
aI78539
aI80536
aI101821
aI108466
aI113323
aI152768
aI159806
aI160237
aI174311
aI185617
aI194491
aI202168
aI203715
aI204489
aI204524
aI204551
aI222395
aI226622
aI238078
asI5
(lp15
I18638
aI53106
aI125769
aI149201
aI149844
aI175402
aI176360
aI185637
aI203640
aI204575
asI6
(lp16
I185661
aI205310
asI7
(lp17
sI8
(lp18
ssI3
(dp19
I1
(lp20
I23873
aI65310
aI65675
aI77294
aI77804
aI78560
aI79304
aI81196
aI84993
aI85360
aI86459
aI86584
aI86630
aI89486
aI93984
aI97535
aI99261
aI99593
aI100756
aI103648
aI113053
aI117121
aI118980
aI119052
aI126290
aI131959
aI135909
aI139067
aI140581
aI141556
aI144402
aI145265
aI145566
aI146857
aI148788
aI152746
aI158634
aI159538
aI159718
aI161931
aI164203
aI164399
aI165095
aI166790
aI169655
aI170358
aI176403
aI180493
aI183528
aI189121
aI191875
aI194589
aI194998
aI199162
aI201676
aI201943
aI203363
aI214486
aI220082
aI226471
aI227098
aI230829
aI244181
aI253777
aI256816
aI258494
asI2
(lp21
I1880
aI14370
aI33526
aI45060
aI50450
aI50608
aI52769
aI60385
aI62129
aI63784
aI65131
aI70993
aI74356
aI81123
aI84567
aI87021
aI88240
aI90553
aI90587
aI94310
aI97489
aI99151
aI99259
aI100960
aI101308
aI101444
aI107414
aI110818
aI114448
aI116253
aI116696
aI117653
aI118461
aI120834
aI122657
aI122674
aI124015
aI124741
aI125319
aI127677
aI128142
aI132319
aI140543
aI142862
aI143233
aI144400
aI148978
aI149294
aI149683
aI154974
aI156998
aI158439
aI158767
aI159548
aI160494
aI162938
aI167125
aI169763
aI171088
aI172270
aI173822
aI175886
aI176318
aI176325
aI176327
aI176647
aI180539
aI181890
aI185869
aI187049
aI187649
aI188320
aI190990
aI193714
aI194207
aI194520
aI195706
aI196686
aI198196
aI198674
aI200716
aI200912
aI200936
aI201480
aI202367
aI202717
aI203945
aI204778
aI210270
aI229379
aI237377
aI256061
aI257621
asI3
(lp22
I790
aI42573
aI50497
aI52246
aI62245
aI71007
aI73116
aI89782
aI91576
aI93780
aI99872
aI100090
aI100210
aI101043
aI102325
aI109823
aI113397
aI116699
aI117531
aI118793
aI119847
aI128403
aI128592
aI130930
aI133533
aI138194
aI142195
aI142568
aI145658
aI146133
aI150666
aI152576
aI154143
aI159572
aI160419
aI163218
aI165669
aI166352
aI180534
aI188335
aI188778
aI195000
aI196602
aI203608
aI205275
aI206046
aI206343
aI209433
aI212292
aI214500
aI233291
aI244294
aI249389
aI252900
asI4
(lp23
I11748
aI15445
aI36810
aI47367
aI50410
aI50473
aI52296
aI52771
aI53076
aI61233
aI65152
aI71011
aI73774
aI75119
aI95730
aI104469
aI128402
aI128526
aI134421
aI139228
aI139369
aI139567
aI142376
aI144255
aI145373
aI145374
aI148948
aI151263
aI151846
aI160237
aI160262
aI162355
aI164388
aI178403
aI179300
aI179505
aI185693
aI188053
aI188787
aI188895
aI193158
aI194491
aI195238
aI199339
aI200881
aI203856
aI204987
aI222253
aI225190
aI227830
aI240303
aI243086
aI246963
aI257045
asI5
(lp24
I53106
aI77468
aI112105
aI125769
aI127431
aI128054
aI142011
aI148290
aI151659
aI158697
aI173028
aI185637
aI190835
aI194338
aI195669
asI6
(lp25
I126295
aI185661
aI190734
aI190749
aI190762
aI190792
aI190811
aI190823
aI191968
aI201140
aI205310
asI7
(lp26
I143854
asI8
(lp27
I201524
assI4
(dp28
I1
(lp29
I22174
aI33632
aI39366
aI52010
aI54695
aI82245
aI85830
aI133000
aI153240
aI167364
aI170205
aI170233
aI170241
aI170254
aI170274
aI170313
aI170335
aI170347
aI170356
aI170450
aI170504
aI170543
aI170573
aI170589
aI170595
aI170612
aI170633
aI170654
aI170670
aI171906
aI172042
aI172190
aI172277
aI172332
aI172378
aI175594
aI178414
aI179495
aI181163
aI183283
aI188557
aI206131
aI218361
aI221909
aI222266
aI224596
aI226286
aI226916
aI237353
aI237832
aI239034
aI239990
aI241648
aI254439
aI256953
asI2
(lp30
I1880
aI33526
aI52769
aI56751
aI70993
aI74356
aI88393
aI89046
aI110818
aI114803
aI129918
aI168305
aI169009
aI172249
aI172270
aI174176
aI182405
aI187965
aI192693
aI194656
aI197359
aI206577
aI238200
asI3
(lp31
I1646
aI18639
aI27396
aI31327
aI35503
aI62245
aI83964
aI93780
aI127691
aI128403
aI128521
aI129446
aI148334
aI148385
aI150666
aI152709
aI161559
aI167122
aI170768
aI184232
aI185409
aI185428
aI188778
aI189755
aI190150
aI201095
aI203555
aI203608
aI203749
aI204235
aI206046
aI206540
aI206594
aI206667
aI207055
aI210664
aI212292
aI222740
aI231241
aI239198
aI239875
aI252900
asI4
(lp32
I11748
aI36810
aI47367
aI50410
aI50473
aI52296
aI52771
aI53076
aI53600
aI65795
aI71011
aI73774
aI87264
aI94459
aI95730
aI104469
aI113323
aI128402
aI128526
aI131054
aI134421
aI139567
aI145373
aI145374
aI148300
aI151846
aI168842
aI169423
aI188053
aI188787
aI188895
aI192129
aI193158
aI195238
aI195311
aI200881
aI203649
aI203715
aI206642
aI225190
aI227830
aI240303
aI257045
aI259906
asI5
(lp33
I62387
aI78195
aI128054
aI148290
aI176360
aI176867
aI182785
aI195669
asI6
(lp34
I84049
aI148442
aI176707
aI180438
aI190734
aI190749
aI190762
aI190792
aI190811
aI190823
aI191968
aI201140
aI205310
asI7
(lp35
sI8
(lp36
ssI5
(dp37
I1
(lp38
I16062
aI16394
aI34711
aI34771
aI35889
aI44774
aI47763
aI47836
aI55303
aI81949
aI83329
aI97118
aI131634
aI141903
aI191427
aI191433
aI191450
aI191523
aI191545
aI191551
aI191556
aI192769
aI192784
aI192801
aI192815
aI192831
aI192941
aI192987
aI193019
aI193034
aI193060
aI193070
aI193096
aI193122
aI193140
aI193162
aI193186
aI193206
aI193231
aI193257
aI193373
aI193574
aI193590
aI193610
aI193995
aI207203
aI247482
asI2
(lp39
I190936
asI3
(lp40
sI4
(lp41
sI5
(lp42
I190835
asI6
(lp43
I190734
aI190749
aI190762
aI190792
aI190811
aI190823
asI7
(lp44
sI8
(lp45
ssI6
(dp46
I1
(lp47
I64710
aI64958
aI65339
aI66559
aI66856
aI67089
aI68078
aI68094
aI69957
aI71759
aI72251
aI74826
aI81813
aI82582
aI101105
aI102818
aI104807
aI109320
aI113109
aI116915
aI118330
aI119305
aI123651
aI128424
aI141596
aI148114
aI150268
aI151910
aI152575
aI152649
aI159047
aI160080
aI160332
aI161015
aI162641
aI163872
aI165789
aI178551
aI184311
aI184418
aI192264
aI195682
aI196005
aI196449
asI2
(lp48
I19189
aI64322
aI66327
aI75801
aI81685
aI99340
aI99429
aI114556
aI116107
aI153261
aI160509
aI172013
aI189229
aI193462
aI229377
aI239917
asI3
(lp49
I64618
aI93780
aI124776
aI128592
aI192012
asI4
(lp50
I65795
aI160237
aI199339
asI5
(lp51
I64858
asI6
(lp52
sI7
(lp53
sI8
(lp54
ssI7
(dp55
I1
(lp56
I132243
aI132268
aI132279
aI132296
aI132323
aI132329
aI132336
aI132358
aI132373
aI132458
aI132491
aI132620
aI132670
aI132782
aI132898
aI132931
aI133118
aI133187
aI133556
aI133588
aI134048
aI134231
aI134384
aI136422
aI154133
aI158929
aI159584
aI160588
aI160892
aI161542
aI162593
aI169586
aI175164
aI178085
aI178819
aI181089
aI182104
aI188661
aI203884
aI236751
aI236894
aI237003
aI237194
aI238962
asI2
(lp57
I1542
aI133182
aI134729
aI154744
aI160101
aI177897
asI3
(lp58
I790
asI4
(lp59
sI5
(lp60
sI6
(lp61
sI7
(lp62
sI8
(lp63
ssI8
(dp64
I1
(lp65
I47081
aI74724
aI164631
aI164645
aI164659
aI164668
aI164691
aI164699
aI164712
aI164719
aI164741
aI164752
aI164764
aI164774
aI164794
aI164803
aI164826
aI164852
aI164880
aI164893
aI164994
aI165012
aI165013
aI165733
aI166833
aI168351
aI168908
aI168913
aI168921
aI169025
aI169817
aI170063
aI170154
aI174994
aI184845
aI189085
aI192750
aI197387
aI199202
aI208392
aI208617
aI224517
asI2
(lp66
I49570
aI119734
aI149421
aI162887
aI165969
aI168687
aI168700
aI168733
aI168863
aI169975
aI172581
aI185869
aI199249
aI206324
aI207698
aI227967
asI3
(lp67
I42573
aI50596
aI56968
aI57773
aI70804
aI76403
aI100090
aI116699
aI117531
aI118793
aI121957
aI128605
aI133533
aI142568
aI161416
aI163921
aI185409
aI185428
aI188335
aI188778
aI204842
aI209433
asI4
(lp68
I11748
aI27388
aI50410
aI52296
aI53076
aI61233
aI71011
aI75119
aI79924
aI80536
aI83985
aI112808
aI128402
aI145374
aI148948
aI159806
aI162355
aI164388
aI178403
aI179300
aI188787
aI188895
aI192129
aI194491
aI202168
aI203856
asI5
(lp69
I18638
aI64858
aI127431
aI142011
aI149844
aI151659
aI175402
aI203640
asI6
(lp70
I201140
aI205310
aI209849
asI7
(lp71
I143854
asI8
(lp72
I201524
assI9
(dp73
I1
(lp74
I17178
aI22989
aI30837
aI41378
aI71534
aI94296
aI103025
aI126049
aI152313
aI153969
aI154456
aI160328
aI161579
aI162494
aI176186
aI176425
aI184747
aI187780
aI189555
aI204000
aI204019
aI204029
aI204051
aI204064
aI204078
aI204091
aI204103
aI204114
aI204128
aI204143
aI204151
aI204202
aI204220
aI204234
aI204250
aI204257
aI204271
aI204286
aI204313
aI204326
aI210766
asI2
(lp75
I17854
aI45481
aI50608
aI64201
aI85170
aI91722
aI91741
aI101726
aI104115
aI110648
aI110655
aI119567
aI127677
aI134034
aI142236
aI142446
aI144530
aI149421
aI162938
aI169542
aI176421
aI176434
aI184338
aI200716
aI202185
aI202472
aI203960
aI204351
aI204365
aI204395
aI204412
aI204424
aI205508
aI205546
aI205608
aI205628
aI205660
aI208086
aI208352
aI210270
aI227967
aI228635
aI252401
asI3
(lp76
I32119
aI42573
aI80067
aI95167
aI100090
aI102325
aI113849
aI116699
aI117531
aI118793
aI133533
aI142195
aI143471
aI147779
aI152576
aI161416
aI163921
aI168200
aI177560
aI184817
aI188335
aI195442
aI203330
aI204605
aI205633
aI208552
aI244294
asI4
(lp77
I51691
aI70241
aI74764
aI75119
aI79924
aI83985
aI101821
aI112808
aI129885
aI144255
aI147946
aI148948
aI151263
aI160237
aI162355
aI185617
aI185693
aI194491
aI195378
aI202168
aI203856
aI204489
aI204524
aI204551
aI222395
aI226622
aI238078
asI5
(lp78
I53106
aI125769
aI142285
aI149201
aI151659
aI173974
aI175402
aI185637
aI203640
aI204575
asI6
(lp79
I185661
aI194014
aI201140
aI209849
asI7
(lp80
sI8
(lp81
I201524
assI10
(dp82
I1
(lp83
I4250
aI13459
aI26823
aI38278
aI47265
aI47822
aI71849
aI73620
aI78273
aI86969
aI89432
aI101214
aI104649
aI105462
aI117355
aI120028
aI124988
aI125811
aI132547
aI136804
aI138938
aI144367
aI145136
aI162151
aI166791
aI167212
aI167520
aI168525
aI173956
aI175257
aI177962
aI191076
aI196732
aI213028
aI214807
aI223482
aI234331
aI237376
aI247461
aI247757
aI249335
asI2
(lp84
I2568
aI3330
aI5391
aI11685
aI24874
aI50450
aI53689
aI53694
aI56618
aI60385
aI66501
aI67296
aI88976
aI89868
aI93793
aI96513
aI98163
aI98885
aI123718
aI125319
aI130545
aI145666
aI146885
aI149817
aI157784
aI161028
aI163550
aI165234
aI167468
aI169414
aI173987
aI181890
aI204890
aI204905
aI204922
aI207060
aI239297
asI3
(lp85
I2894
aI3503
aI4519
aI24599
aI27379
aI31327
aI35503
aI71288
aI71316
aI83964
aI93863
aI108115
aI108798
aI113397
aI114329
aI118160
aI125197
aI145658
aI153343
aI159572
aI161559
aI163218
aI165669
aI169497
aI178487
aI182192
aI182365
aI196602
aI201095
aI203482
aI203555
aI204779
aI204797
aI204805
aI204896
aI204937
aI205275
aI210664
aI222740
aI236533
aI238434
aI239875
asI4
(lp86
I18566
aI23932
aI27388
aI53600
aI53948
aI54028
aI65152
aI87264
aI108087
aI108466
aI113323
aI117625
aI120864
aI128526
aI147859
aI147946
aI148300
aI151846
aI160262
aI161318
aI169423
aI170597
aI172185
aI172432
aI188053
aI192806
aI193490
aI195238
aI195311
aI197120
aI203066
aI203649
aI204850
aI225190
aI226938
aI241410
aI243086
aI246963
aI259906
asI5
(lp87
I18638
aI77468
aI96284
aI108331
aI109642
aI109680
aI112105
aI114707
aI116447
aI127431
aI128054
aI149844
aI158697
aI163868
aI172059
aI172930
aI176360
aI176867
asI6
(lp88
I84049
aI93830
aI108047
aI150632
aI161371
aI161494
aI162048
aI176707
aI180438
aI191968
aI203053
aI203078
aI205310
asI7
(lp89
I94454
asI8
(lp90
I201524
assI11
(dp91
I1
(lp92
I108179
aI108189
aI108583
aI108608
aI109530
aI109701
aI110001
aI110070
aI110104
aI110384
aI110882
aI110958
aI110964
aI111086
aI111431
aI115149
aI120548
aI121498
aI121648
aI148370
aI148904
aI152992
aI153148
aI158018
aI160621
aI162492
aI162552
aI162884
aI167368
aI174159
aI187093
aI188410
aI194051
aI194820
aI195438
aI197171
asI2
(lp93
I108878
aI108933
aI111025
asI3
(lp94
I108115
asI4
(lp95
I108087
aI117625
aI192806
asI5
(lp96
I108331
aI109680
aI163868
aI172930
asI6
(lp97
I108047
aI148053
aI150632
aI162048
asI7
(lp98
sI8
(lp99
ssI12
(dp100
I1
(lp101
I129726
aI129925
aI130059
aI130068
aI130140
aI130467
aI130509
aI130750
aI130800
aI131141
aI131143
aI131659
aI131807
aI131813
aI131936
aI131980
aI132123
aI143242
aI148875
aI151561
aI153123
aI153527
aI158569
aI161164
aI162172
aI163202
aI165912
aI174748
aI180574
aI187074
aI188385
aI194674
aI194771
aI196059
aI225007
asI2
(lp102
I65131
aI128142
aI130157
aI130182
aI130200
aI130313
aI132016
aI148973
aI168080
asI3
(lp103
I129649
aI130920
aI131997
aI162903
aI197744
asI4
(lp104
I120864
aI147859
aI193158
aI197120
aI226938
aI241410
asI5
(lp105
I116457
aI148290
aI182785
asI6
(lp106
I148442
asI7
(lp107
I143854
asI8
(lp108
ssI13
(dp109
I1
(lp110
I127777
aI127797
aI127944
aI128008
aI128017
aI128075
aI128120
aI128137
aI128182
aI128191
aI128955
aI128994
aI129057
aI129823
aI130360
aI130555
aI131637
aI132029
aI151089
aI151687
aI157129
aI158808
aI160775
aI160783
aI163792
aI174388
aI177240
aI181983
aI195125
aI203468
aI204457
aI236766
aI237052
aI237837
asI2
(lp111
I127904
aI128264
aI129605
aI129616
aI129627
aI130313
aI130708
aI131826
aI148973
aI156326
aI168080
aI174353
aI184476
aI201306
aI204890
aI204905
aI204922
aI238060
aI255942
asI3
(lp112
I83839
aI100195
aI127691
aI128605
aI129446
aI129595
aI129649
aI130920
aI131997
aI162903
aI187032
aI197744
aI203482
aI204797
aI204805
aI204896
aI204937
asI4
(lp113
I53600
aI54028
aI65795
aI78436
aI94459
aI108087
aI168842
aI169423
aI172813
aI196653
aI203066
aI204850
asI5
(lp114
I62387
aI78195
aI108331
aI109642
aI109680
aI114707
aI149058
aI163868
aI172930
aI194338
asI6
(lp115
I84049
aI108047
aI150632
aI162048
aI176707
aI180438
aI203053
asI7
(lp116
sI8
(lp117
ssI14
(dp118
I1
(lp119
I21972
aI62615
aI63465
aI69682
aI69838
aI74941
aI77390
aI80964
aI81975
aI89548
aI98965
aI99967
aI104454
aI106594
aI110331
aI113998
aI120554
aI120593
aI121674
aI147370
aI148928
aI153222
aI158042
aI160642
aI161476
aI162582
aI162919
aI167245
aI187130
aI188429
aI192470
aI194123
aI194873
aI196937
asI2
(lp120
I78182
aI129918
aI146822
aI174176
aI207156
asI3
(lp121
I63308
aI128521
aI180680
asI4
(lp122
I78436
aI94459
aI169654
asI5
(lp123
I62387
aI78195
aI149058
aI173974
asI6
(lp124
I148053
asI7
(lp125
sI8
(lp126
ssI15
(dp127
I1
(lp128
I65782
aI65823
aI68400
aI69579
aI74050
aI76774
aI77597
aI80895
aI83983
aI86618
aI98674
aI109965
aI111977
aI119261
aI126349
aI127935
aI128707
aI151769
aI155014
aI155568
aI156107
aI157220
aI158710
aI172099
aI174627
aI179386
aI179796
aI194424
aI195594
aI204973
aI205926
aI207267
aI225530
asI2
(lp129
I75511
aI93421
aI96252
aI111570
aI128875
aI142904
aI148978
aI169763
aI179288
aI182307
asI3
(lp130
I118249
asI4
(lp131
I87264
asI5
(lp132
sI6
(lp133
sI7
(lp134
sI8
(lp135
I201524
assI16
(dp136
I1
(lp137
I7146
aI40114
aI40861
aI61897
aI63799
aI64857
aI64863
aI65365
aI73141
aI79714
aI79895
aI96896
aI102469
aI114135
aI115268
aI142996
aI143876
aI148354
aI157329
aI160678
aI161549
aI161597
aI161602
aI171622
aI174035
aI174194
aI177927
aI177939
aI188274
aI191754
aI193312
aI232986
asI2
(lp138
I33975
aI188173
aI212158
aI243343
asI3
(lp139
I44108
aI71288
aI74395
aI91576
aI99872
aI161416
aI163921
aI178487
aI182365
aI197264
aI204779
aI204805
aI204896
aI233291
aI238434
asI4
(lp140
I65152
aI79924
aI112808
aI139228
aI139369
aI161318
aI169640
aI170597
aI204850
aI243086
asI5
(lp141
I64858
aI77468
aI121751
aI125260
aI236889
asI6
(lp142
I126295
aI203078
aI209849
asI7
(lp143
sI8
(lp144
ssI17
(dp145
I1
(lp146
I53270
aI151401
aI162344
aI173902
aI186070
aI194364
aI195239
aI195264
aI195306
aI195315
aI195327
aI195358
aI195391
aI195396
aI195428
aI195433
aI195499
aI195566
aI195605
aI195657
aI195675
aI195711
aI195819
aI196728
aI197998
aI198188
aI199572
aI209218
aI209505
aI223147
aI238663
asI2
(lp147
I49583
aI79240
aI81024
aI97483
aI98639
aI106029
aI113552
aI113585
aI113890
aI119746
aI123746
aI135351
aI150334
aI160403
aI162467
aI173952
aI184863
aI185547
aI186166
aI192214
aI193846
aI193953
aI194887
aI195135
aI195150
aI195190
aI195196
aI195213
aI195477
aI195569
aI195574
aI195655
aI195966
aI195990
aI202472
aI207382
aI223010
asI3
(lp148
I56968
aI64618
aI108798
aI113660
aI113849
aI143471
aI149207
aI162306
aI173352
aI177560
aI185560
aI195442
aI203330
aI208552
aI241533
asI4
(lp149
I15445
aI50410
aI52296
aI70241
aI71011
aI75119
aI78436
aI78539
aI79924
aI112808
aI128402
aI145374
aI148948
aI162355
aI185617
aI185693
aI195378
aI196653
aI204489
aI204524
aI204551
aI222253
aI238078
asI5
(lp150
I127431
aI151659
aI173974
aI175402
aI185637
aI203640
aI204575
asI6
(lp151
I185661
aI201140
asI7
(lp152
I143854
asI8
(lp153
ssI18
(dp154
I1
(lp155
I3975
aI8365
aI9541
aI12138
aI58510
aI67919
aI70969
aI89752
aI90200
aI90887
aI92907
aI95301
aI103483
aI109738
aI124067
aI131454
aI142713
aI157130
aI157617
aI180828
aI185794
aI186463
aI199293
aI208678
aI211922
aI212813
aI223175
aI225470
aI229519
aI244433
aI244729
asI2
(lp156
I5391
aI65987
aI66501
aI81123
aI110601
aI113817
aI114448
aI116253
aI116696
aI143233
aI147437
aI170532
aI171927
aI175595
aI195706
aI201480
aI202367
aI206520
aI206530
aI222095
aI229379
asI3
(lp157
I2894
aI3503
aI22907
aI24599
aI44108
aI71288
aI71316
aI74395
aI83839
aI90942
aI91576
aI99872
aI100195
aI108421
aI109823
aI125299
aI125536
aI152709
aI157847
aI159572
aI160419
aI160975
aI163218
aI165669
aI167122
aI178487
aI182192
aI182365
aI187032
aI197264
aI203482
aI204779
aI204797
aI231241
aI233291
aI238434
asI4
(lp158
I36810
aI54028
aI95730
aI128526
aI134421
aI139228
aI139369
aI142376
aI152324
aI161318
aI169640
aI170597
aI172185
aI179505
aI188053
aI195510
aI200881
aI204850
aI206642
aI225190
aI227830
aI240303
aI257045
asI5
(lp159
I77468
aI113092
aI116457
aI121751
aI128054
aI182785
aI190835
aI236889
asI6
(lp160
I84049
aI126295
aI176707
aI180438
aI190734
aI190749
aI190762
aI190792
aI190811
aI190823
aI194014
aI203078
asI7
(lp161
sI8
(lp162
ssI19
(dp163
I1
(lp164
I31197
aI40112
aI51522
aI60034
aI62539
aI64290
aI75785
aI96444
aI107534
aI111223
aI118489
aI161481
aI161904
aI169151
aI170528
aI172547
aI173841
aI174252
aI174362
aI177950
aI188174
aI189491
aI191570
aI191949
aI192944
aI246034
aI246128
aI246693
aI248067
aI248531
asI2
(lp165
I33975
aI101726
aI142236
aI212158
asI3
(lp166
I80067
aI147779
asI4
(lp167
sI5
(lp168
I125260
asI6
(lp169
sI7
(lp170
sI8
(lp171
ssI20
(dp172
I1
(lp173
I2293
aI37687
aI43913
aI45037
aI46307
aI47436
aI57969
aI71732
aI74516
aI82803
aI86127
aI88371
aI88429
aI93940
aI95039
aI105255
aI110488
aI121461
aI122712
aI122778
aI179797
aI195424
aI211184
aI226584
aI244245
aI244869
aI248794
aI249219
aI256119
asI2
(lp174
I14158
aI67749
aI88976
aI89868
aI158056
aI200291
asI3
(lp175
I23207
aI34087
aI55837
aI66114
aI104814
aI110153
aI129595
aI227519
aI239162
aI255302
asI4
(lp176
I131054
aI152768
asI5
(lp177
sI6
(lp178
I84049
aI176707
aI180438
asI7
(lp179
sI8
(lp180
ssI21
(dp181
I1
(lp182
I43992
aI74020
aI87893
aI95052
aI95097
aI95179
aI96350
aI97573
aI101457
aI101609
aI102423
aI110978
aI112779
aI114089
aI114151
aI128094
aI142981
aI143823
aI158275
aI161401
aI161684
aI162978
aI173634
aI175581
aI186185
aI188966
aI193988
aI213827
asI2
(lp183
I77607
aI94570
aI95151
aI97345
aI116345
aI118908
aI157286
aI161561
aI164264
aI169767
asI3
(lp184
I153254
asI4
(lp185
I151263
aI174311
asI5
(lp186
I125260
asI6
(lp187
I150632
aI209849
asI7
(lp188
sI8
(lp189
ssI22
(dp190
I1
(lp191
I94491
aI94617
aI94618
aI95630
aI95823
aI96348
aI97225
aI97230
aI102073
aI104879
aI109331
aI113131
aI119358
aI128436
aI148159
aI150301
aI152471
aI152681
aI160010
aI160426
aI161996
aI163902
aI179559
aI185214
aI185308
aI193150
aI195696
aI196481
asI2
(lp192
I94011
aI94094
aI94526
aI94619
aI94631
aI94792
aI95561
aI96407
aI97082
aI98623
aI99895
aI102871
aI116966
aI117162
aI119269
aI123683
aI142081
aI161124
aI162665
aI166841
aI196681
asI3
(lp193
I104814
aI153343
aI173352
asI4
(lp194
I193490
asI5
(lp195
I116447
aI172059
aI173028
asI6
(lp196
I93830
aI161371
aI161494
asI7
(lp197
I94454
asI8
(lp198
ssI23
(dp199
I1
(lp200
I3600
aI17400
aI70861
aI77696
aI83941
aI86041
aI98955
aI102503
aI116850
aI119532
aI134806
aI144579
aI148872
aI158972
aI165632
aI185553
aI187599
aI191350
aI191668
aI192311
aI192469
aI192521
aI192649
aI194362
aI198692
aI224299
aI226885
asI2
(lp201
I79240
aI81024
aI98639
aI106029
aI117342
aI119746
aI135384
aI149382
aI150334
aI161927
aI162467
aI177324
aI180140
aI180504
aI186166
aI191935
aI192214
aI192419
aI192652
aI193846
aI193953
aI194887
aI195569
aI195655
aI195966
aI195990
asI3
(lp202
I50497
aI52246
aI71007
aI113849
aI146133
aI168200
aI184817
aI193730
aI193836
aI204605
aI205633
aI214500
asI4
(lp203
I50473
aI52771
aI70241
aI74764
aI76901
aI78436
aI104469
aI129885
aI144255
aI145373
aI153520
aI185693
aI196653
aI202168
aI204489
aI204524
aI204551
aI204987
aI238078
asI5
(lp204
I142285
aI173974
aI204575
asI6
(lp205
I185661
aI194014
asI7
(lp206
sI8
(lp207
I201524
assI24
(dp208
I1
(lp209
I147204
aI147264
aI147286
aI148987
aI149095
aI149324
aI149356
aI149376
aI150027
aI150148
aI152731
aI154589
aI157834
aI158125
aI169790
aI171012
aI172009
aI173695
aI174398
aI176348
aI193207
aI196812
aI198186
aI205859
aI207999
aI208063
asI2
(lp210
I13721
aI62129
aI63784
aI80246
aI99151
aI146654
aI146666
aI147029
aI147661
aI156998
aI176338
aI177498
aI180140
aI180504
aI187758
aI187761
aI188541
aI191935
aI192419
aI193698
aI194207
aI197758
aI205083
asI3
(lp211
I52246
aI71007
aI89782
aI119847
aI128403
aI138194
aI154143
aI166352
aI168200
aI173919
aI175856
aI184817
aI187442
aI193730
aI203330
aI203749
aI204842
aI204937
asI4
(lp212
I47367
aI50473
aI52771
aI74764
aI76901
aI104469
aI129885
aI145373
aI153520
aI192129
aI193158
aI195311
aI195378
aI196653
aI204987
aI222395
aI226622
asI5
(lp213
I53106
aI112105
aI116457
aI142011
aI142285
aI148290
aI149201
aI173028
aI176360
aI176867
aI182785
aI194338
asI6
(lp214
I148442
aI191968
asI7
(lp215
I143854
asI8
(lp216
ssI25
(dp217
I1
(lp218
I19156
aI130227
aI130237
aI130247
aI130329
aI130341
aI130358
aI130381
aI130426
aI130881
aI131439
aI131463
aI131537
aI131674
aI132533
aI132680
aI150145
aI159317
aI161953
aI162758
aI170847
aI182559
aI195073
aI215946
asI2
(lp219
I130157
aI130182
aI130200
aI130552
aI132016
aI142821
aI161088
aI167125
aI187632
asI3
(lp220
I62245
aI173919
aI175856
aI203608
asI4
(lp221
I47367
aI76901
aI151263
aI153520
asI5
(lp222
I142285
aI148290
aI173028
asI6
(lp223
sI7
(lp224
sI8
(lp225
ssI26
(dp226
I1
(lp227
I119350
aI119503
aI119650
aI119668
aI120635
aI122259
aI122406
aI122564
aI124613
aI128990
aI149296
aI152434
aI157282
aI157742
aI173800
aI176877
aI196794
aI205760
aI207071
aI207297
aI207780
aI243175
aI254795
asI2
(lp228
I24874
aI117080
aI119079
aI119161
aI119207
aI120383
aI121161
aI121181
aI126643
aI158630
aI164550
aI164580
aI165253
aI171352
aI181188
aI188105
aI193287
aI198499
aI237879
asI3
(lp229
I48515
aI63308
aI76403
aI108115
aI118249
aI148334
aI148385
aI153254
aI162878
aI180680
aI184232
aI187442
aI204235
aI236533
aI239162
aI242298
asI4
(lp230
I51691
aI74764
aI76901
aI101821
aI108087
aI108466
aI117625
aI148300
aI152768
aI153520
aI172813
aI174311
aI192806
aI199339
aI203649
aI203715
aI226622
asI5
(lp231
I53106
aI108331
aI109642
aI109680
aI114707
aI125769
aI142285
aI149058
aI149201
aI149844
aI163868
aI172930
aI176867
aI194338
asI6
(lp232
I108047
aI148442
aI150632
aI162048
aI209849
asI7
(lp233
sI8
(lp234
ssI27
(dp235
I1
(lp236
I168334
aI168345
aI168358
aI168434
aI168454
aI168486
aI168497
aI168533
aI168551
aI168570
aI168582
aI168599
aI168638
aI168645
aI168649
aI168659
aI168980
aI168992
aI169017
aI178088
aI182544
aI183070
asI2
(lp237
I12711
aI89046
aI124015
aI140543
aI168305
aI168687
aI168700
aI168733
aI168863
aI169009
aI169975
aI172581
aI187965
aI196706
aI203091
aI206324
aI257621
asI3
(lp238
I195000
aI207055
asI4
(lp239
I126487
aI152324
aI169654
aI178403
aI179300
aI195510
asI5
(lp240
I64858
aI113092
aI121751
aI158697
aI236889
asI6
(lp241
I126295
aI148053
aI194014
aI203053
aI203078
asI7
(lp242
I94454
asI8
(lp243
ssI28
(dp244
I1
(lp245
I40166
aI65064
aI67360
aI70714
aI78941
aI79892
aI101573
aI110909
aI112705
aI121969
aI132943
aI143730
aI144056
aI148713
aI148792
aI157148
aI157414
aI161390
aI173615
aI175544
aI187795
aI188113
asI2
(lp246
I105506
aI161928
aI226739
asI3
(lp247
I84175
aI149207
asI4
(lp248
I15445
aI78539
aI222253
asI5
(lp249
sI6
(lp250
sI7
(lp251
sI8
(lp252
ssI29
(dp253
I1
(lp254
I113669
aI113688
aI113851
aI113932
aI114957
aI115129
aI115431
aI115576
aI116619
aI116999
aI119985
aI148603
aI150322
aI152734
aI153175
aI160710
aI162694
aI163940
aI167612
aI193831
aI197396
asI2
(lp255
I113246
aI113347
aI113372
aI113552
aI113585
aI113890
aI115161
aI116331
aI116771
aI118868
aI119405
aI123746
aI153307
aI162012
aI162161
aI172033
aI172978
aI173952
aI185797
aI193522
aI195739
asI3
(lp256
I113192
aI113660
aI114213
aI114958
aI168227
asI4
(lp257
sI5
(lp258
sI6
(lp259
sI7
(lp260
sI8
(lp261
ssI30
(dp262
I1
(lp263
I28721
aI75017
aI82411
aI88033
aI110821
aI111578
aI113925
aI117874
aI123372
aI125015
aI154606
aI157101
aI159763
aI160668
aI171725
aI173450
aI176948
aI182086
aI193506
aI205498
aI205976
asI2
(lp264
I80246
aI80633
aI85471
aI125165
aI125620
aI158439
aI176423
aI181238
aI203960
aI205083
aI205508
aI205546
aI205608
aI205628
aI205660
aI208086
asI3
(lp265
I125299
aI193730
asI4
(lp266
I147946
asI5
(lp267
I113092
asI6
(lp268
I203053
asI7
(lp269
sI8
(lp270
ssI31
(dp271
I1
(lp272
I146257
aI146288
aI146322
aI146342
aI146356
aI146387
aI146448
aI146462
aI146531
aI146600
aI146626
aI146916
aI147634
aI147707
aI148462
aI159427
aI175439
aI182410
aI187327
aI203126
asI2
(lp273
I114803
aI146654
aI146666
aI147029
aI147661
aI161028
aI177498
aI197359
aI203091
aI227695
asI3
(lp274
I203555
asI4
(lp275
I161318
aI195238
aI203066
aI246963
asI5
(lp276
I158697
aI195669
asI6
(lp277
I203053
aI203078
asI7
(lp278
sI8
(lp279
ssI32
(dp280
I1
(lp281
I109032
aI109251
aI109267
aI109303
aI109307
aI109525
aI110302
aI111015
aI111923
aI112474
aI117100
aI118482
aI144970
aI153536
aI155881
aI161463
aI162171
aI168081
aI170522
asI2
(lp282
I64201
aI109427
aI111336
aI115610
aI181965
asI3
(lp283
I80067
aI147779
asI4
(lp284
sI5
(lp285
sI6
(lp286
sI7
(lp287
sI8
(lp288
I201524
assI33
(dp289
I1
(lp290
I65550
aI74411
aI79229
aI81624
aI82849
aI85361
aI98200
aI110007
aI116948
aI122744
aI154941
aI189741
aI207246
aI214810
aI257515
aI259225
aI259250
aI259766
asI2
(lp291
sI3
(lp292
sI4
(lp293
sI5
(lp294
sI6
(lp295
sI7
(lp296
sI8
(lp297
ssI34
(dp298
I1
(lp299
I206543
aI206561
aI206580
aI206589
aI206596
aI206604
aI206615
aI206628
aI206645
aI206659
aI206668
aI206707
aI206730
aI206769
aI206803
aI206825
aI206838
aI207518
asI2
(lp300
I142862
aI160494
aI187649
aI206359
aI206374
aI206413
aI206441
aI206452
aI206486
aI206510
aI206520
aI206530
asI3
(lp301
I101043
aI206343
aI206472
asI4
(lp302
sI5
(lp303
sI6
(lp304
sI7
(lp305
sI8
(lp306
ssI35
(dp307
I1
(lp308
I108971
aI109035
aI109085
aI109124
aI109987
aI110202
aI110491
aI110939
aI123868
aI126019
aI142560
aI150962
aI161556
aI174632
aI180542
asI2
(lp309
I108878
aI108933
aI109427
aI111025
aI111336
aI115610
aI181965
asI3
(lp310
sI4
(lp311
sI5
(lp312
I182785
asI6
(lp313
sI7
(lp314
sI8
(lp315
ssI36
(dp316
I1
(lp317
I22866
aI35814
aI66725
aI93857
aI133150
aI133690
aI136740
aI140988
aI142519
aI150839
aI156562
aI162934
aI184862
aI194671
aI225639
asI2
(lp318
I1542
aI32877
aI75511
aI93421
aI96252
aI111570
aI128875
aI134729
aI142904
aI177897
aI182307
asI3
(lp319
I143932
asI4
(lp320
I18566
aI23932
asI5
(lp321
I18638
asI6
(lp322
sI7
(lp323
sI8
(lp324
ssI37
(dp325
I1
(lp326
I94336
aI94348
aI94457
aI94498
aI95051
aI95283
aI95631
aI95798
aI97023
aI101291
aI115092
aI125920
aI150453
aI173748
aI181410
asI2
(lp327
I94526
aI94570
aI95151
aI96407
aI97345
aI102871
aI116345
aI118908
aI142081
aI161124
aI161561
aI169767
asI3
(lp328
I93863
asI4
(lp329
I172432
aI193490
asI5
(lp330
I96284
aI116447
aI172059
asI6
(lp331
I93830
aI161371
aI161494
asI7
(lp332
I94454
asI8
(lp333
ssI38
(dp334
I1
(lp335
I114485
aI114491
aI114526
aI114542
aI114564
aI114622
aI114625
aI116102
aI116220
aI117116
aI117316
aI118981
aI161615
aI170474
aI194718
asI2
(lp336
I115815
aI116727
aI158767
aI182172
aI202717
asI3
(lp337
I195442
asI4
(lp338
sI5
(lp339
sI6
(lp340
sI7
(lp341
sI8
(lp342
ssI39
(dp343
I1
(lp344
I114342
aI114404
aI114441
aI114447
aI114694
aI114729
aI115272
aI115552
aI115893
aI125968
aI142778
aI151138
aI161723
aI174394
asI2
(lp345
I115815
aI116727
aI128464
aI176647
aI182172
aI194520
asI3
(lp346
sI4
(lp347
I126487
asI5
(lp348
sI6
(lp349
sI7
(lp350
sI8
(lp351
ssI40
(dp352
I1
(lp353
I118983
aI119037
aI119864
aI121259
aI126818
aI128660
aI140424
aI140563
aI146798
aI181744
aI187114
aI189469
aI192267
aI236047
asI2
(lp354
I119079
aI119161
aI119207
aI120383
aI121161
aI121181
aI126643
aI128264
aI131826
aI158630
aI181188
aI201306
aI204778
aI255942
asI3
(lp355
I1646
aI22907
aI108421
aI125536
aI203749
asI4
(lp356
I152324
aI169640
aI169654
aI178403
aI179300
asI5
(lp357
sI6
(lp358
sI7
(lp359
sI8
(lp360
ssI41
(dp361
I1
(lp362
I130662
aI130663
aI130672
aI130703
aI131022
aI131640
aI132174
aI132688
aI159103
aI162282
aI174253
aI175879
aI185259
aI189944
asI2
(lp363
I84774
aI130552
aI135351
aI142821
aI155520
aI158708
aI161088
aI170424
aI184697
aI184863
aI187632
aI223010
aI250330
aI258277
asI3
(lp364
I149207
asI4
(lp365
I15445
aI51691
aI101821
aI164388
aI222253
aI222395
asI5
(lp366
I149201
asI6
(lp367
I201140
asI7
(lp368
sI8
(lp369
ssI42
(dp370
I1
(lp371
I78097
aI82206
aI125028
aI141117
aI143833
aI144144
aI173005
aI178543
aI190188
aI209952
aI224738
aI242097
asI2
(lp372
I85136
aI226739
asI3
(lp373
sI4
(lp374
sI5
(lp375
sI6
(lp376
sI7
(lp377
sI8
(lp378
ssI43
(dp379
I1
(lp380
I68880
aI69955
aI79689
aI102372
aI114000
aI115812
aI118823
aI160686
aI161555
aI168736
aI194471
asI2
(lp381
I75801
aI114556
aI229377
aI239917
asI3
(lp382
sI4
(lp383
sI5
(lp384
sI6
(lp385
sI7
(lp386
sI8
(lp387
ssI44
(dp388
I1
(lp389
I114117
aI114248
aI114272
aI115533
aI115827
aI116908
aI160475
aI162652
aI180307
aI185903
aI196522
asI2
(lp390
I116771
aI119405
aI128464
aI185797
aI195739
asI3
(lp391
sI4
(lp392
sI5
(lp393
I125260
asI6
(lp394
sI7
(lp395
sI8
(lp396
ssI45
(dp397
I1
(lp398
I194489
aI194930
aI194946
aI194966
aI194986
aI195002
aI195020
aI195051
aI195085
aI195106
aI195115
asI2
(lp399
I176211
aI194862
aI194871
aI194881
aI194888
aI194902
aI194912
aI195135
aI195150
aI195190
aI195196
aI195213
aI195574
aI207382
asI3
(lp400
I184232
asI4
(lp401
I65152
aI126487
asI5
(lp402
I96284
aI121751
aI236889
asI6
(lp403
I93830
aI126295
aI148053
aI148442
aI161371
aI161494
asI7
(lp404
I94454
asI8
(lp405
ssI46
(dp406
I1
(lp407
I194685
aI194714
aI194726
aI194743
aI194760
aI194781
aI194792
aI194811
aI194824
aI194848
asI2
(lp408
I192693
aI193287
aI194656
aI194862
aI194871
aI194881
aI194888
aI194902
aI194912
asI3
(lp409
I83964
aI148385
aI161559
aI207995
aI210664
aI222740
asI4
(lp410
I73774
aI139567
aI203715
asI5
(lp411
I113092
aI173974
aI195669
asI6
(lp412
I148053
aI194014
asI7
(lp413
sI8
(lp414
ssI47
(dp415
I1
(lp416
I94083
aI113151
aI139545
aI143793
aI146841
aI161687
aI181841
aI182610
aI187203
asI2
(lp417
I78182
aI85471
aI125165
aI125620
aI146822
aI176423
aI181238
aI207156
asI3
(lp418
I44108
aI207995
asI4
(lp419
I120864
aI147859
aI197120
aI226938
aI241410
aI246963
asI5
(lp420
sI6
(lp421
I194014
asI7
(lp422
sI8
(lp423
ssI48
(dp424
I1
(lp425
I99569
aI113964
aI128523
aI130461
aI176329
aI179493
aI190827
aI218813
asI2
(lp426
I2568
aI3330
aI14158
aI14370
aI53689
aI53694
aI56618
aI56751
aI67749
aI88393
aI94011
aI94094
aI94310
aI94619
aI94631
aI94792
aI95561
aI97082
aI98623
aI99895
aI100960
aI101308
aI107414
aI107986
aI109973
aI116966
aI117162
aI118461
aI119269
aI120834
aI123683
aI127904
aI129605
aI129616
aI129627
aI130708
aI144400
aI149294
aI149683
aI154974
aI156326
aI157498
aI158056
aI159548
aI162665
aI166841
aI174353
aI176318
aI176325
aI176327
aI180050
aI180539
aI184476
aI191565
aI193714
aI194829
aI196681
aI198196
aI200291
aI206452
aI206486
aI206510
aI237377
aI237965
aI238060
aI256061
asI3
(lp427
I2894
aI3503
aI4519
aI18639
aI23207
aI24599
aI27396
aI34087
aI55837
aI66114
aI70804
aI83839
aI90942
aI100195
aI110153
aI127691
aI129446
aI129595
aI129649
aI130920
aI130930
aI131997
aI152576
aI152709
aI153343
aI154143
aI157847
aI160975
aI162306
aI162903
aI166352
aI170768
aI173352
aI180534
aI187032
aI189755
aI190150
aI197744
aI206472
aI227519
aI231241
aI255302
asI4
(lp428
I36810
aI53600
aI53948
aI61233
aI73774
aI80536
aI83985
aI94459
aI95730
aI131054
aI134421
aI139567
aI142376
aI159806
aI160262
aI168842
aI169423
aI170597
aI172185
aI172432
aI172813
aI179505
aI193490
aI195510
aI200881
aI206642
aI227830
aI240303
aI257045
aI259906
asI5
(lp429
I62387
aI78195
aI96284
aI109642
aI109680
aI112105
aI114707
aI116447
aI116457
aI128054
aI142011
aI149058
aI172059
aI190835
aI194338
aI195669
asI6
(lp430
I84049
aI93830
aI108047
aI161371
aI161494
aI162048
aI176707
aI180438
aI190734
aI190749
aI190762
aI190792
aI190811
aI190823
aI191968
asI7
(lp431
I94454
aI143854
asI8
(lp432
ssI49
(dp433
I1
(lp434
I14352
aI40457
aI42170
aI66596
aI206823
aI206865
aI206887
aI230132
asI2
(lp435
I206726
asI3
(lp436
I100210
aI206667
aI249389
asI4
(lp437
sI5
(lp438
sI6
(lp439
sI7
(lp440
sI8
(lp441
ssI50
(dp442
I1
(lp443
I80711
aI80764
aI125902
aI152389
aI153127
aI224768
asI2
(lp444
sI3
(lp445
sI4
(lp446
sI5
(lp447
sI6
(lp448
sI7
(lp449
sI8
(lp450
ss.